target datalayout = "e-m:e-p270:32:32-p271:32:32-p272:64:64-i64:64-i128:128-f80:128-n8:16:32:64-S128"
target triple = "x86_64-pc-linux-gnu"

%struct.pmix_object_t = type { %union.pthread_mutex_t, ptr, i32, %struct.pmix_tma }
%union.pthread_mutex_t = type { %struct.__pthread_mutex_s }
%struct.__pthread_mutex_s = type { i32, i32, i32, i32, i32, i16, i16, %struct.__pthread_internal_list }
%struct.__pthread_internal_list = type { ptr, ptr }
%struct.pmix_tma = type { ptr, ptr, ptr, ptr, ptr, ptr, ptr, ptr }
%struct.pmix_proc = type { [256 x i8], i32 }
%struct.timeval = type { i64, i64 }
%struct.pmix_iof_flags_t = type { i8, i8, i8, i8, i8, i8, i8, ptr, ptr, i8, i8, i8, i8, i8, i8 }
%struct.pmix_class_t = type { ptr, ptr, ptr, ptr, i32, i32, ptr, ptr, i64 }
%struct.event = type { %struct.event_callback, %union.anon.0, i32, ptr, %union.anon.2, i16, i16, %struct.timeval }
%struct.event_callback = type { %struct.anon, i16, i8, i8, %union.anon, ptr }
%struct.anon = type { ptr, ptr }
%union.anon = type { ptr }
%union.anon.0 = type { %struct.anon.1 }
%struct.anon.1 = type { ptr, ptr }
%union.anon.2 = type { %struct.anon.3 }
%struct.anon.3 = type { %struct.anon.4, %struct.timeval }
%struct.anon.4 = type { ptr, ptr }
%struct.pmix_lock_t = type { i32, %struct.pmix_mutex_t, %union.pthread_cond_t, i8 }
%struct.pmix_mutex_t = type { %struct.pmix_object_t, %union.pthread_mutex_t }
%union.pthread_cond_t = type { %struct.__pthread_cond_s }
%struct.__pthread_cond_s = type { %union.__atomic_wide_counter, %union.__atomic_wide_counter, [2 x i32], [2 x i32], i32, i32, [2 x i32] }
%union.__atomic_wide_counter = type { i64 }
%struct.pmix_setup_caddy_t = type { %struct.pmix_object_t, %struct.event, %struct.pmix_lock_t, ptr, ptr, i32, ptr, i64, %struct.pmix_proc, ptr, i64, i32, i32, ptr, i32, ptr, i64, ptr, i64, i8, ptr, ptr, i64, i16, %struct.pmix_iof_flags_t, ptr, i64, i64, i32, ptr, ptr, ptr, ptr, ptr, ptr }

@.str.86 = private unnamed_addr constant [21 x i8] c"pthread_mutex_lock()\00", align 1

; Function Attrs: inlinehint nounwind uwtable
define internal void @pmix_tma_free(ptr noundef %0, ptr noundef %1) #4 {
  %3 = alloca ptr, align 8
  %4 = alloca ptr, align 8
  store ptr %0, ptr %3, align 8, !tbaa !132
  store ptr %1, ptr %4, align 8, !tbaa !8
  %5 = load ptr, ptr %3, align 8, !tbaa !132
  %6 = icmp ne ptr null, %5
  br i1 %6, label %7, label %13

7:                                                ; preds = %2
  %8 = load ptr, ptr %3, align 8, !tbaa !132
  %9 = getelementptr inbounds nuw %struct.pmix_tma, ptr %8, i32 0, i32 5
  %10 = load ptr, ptr %9, align 8, !tbaa !148
  %11 = load ptr, ptr %3, align 8, !tbaa !132
  %12 = load ptr, ptr %4, align 8, !tbaa !8
  call void %10(ptr noundef %11, ptr noundef %12)
  br label %15

13:                                               ; preds = %2
  %14 = load ptr, ptr %4, align 8, !tbaa !8
  call void @free(ptr noundef %14) #14
  br label %15

15:                                               ; preds = %13, %7
  ret void
}

; Function Attrs: inlinehint nounwind uwtable
define internal void @pmix_obj_run_destructors(ptr noundef %0) #4 {
  %2 = alloca ptr, align 8
  %3 = alloca ptr, align 8
  store ptr %0, ptr %2, align 8, !tbaa !89
  call void @llvm.lifetime.start.p0(i64 8, ptr %3) #14
  %4 = load ptr, ptr %2, align 8, !tbaa !89
  %5 = getelementptr inbounds nuw %struct.pmix_object_t, ptr %4, i32 0, i32 1
  %6 = load ptr, ptr %5, align 8, !tbaa !82
  %7 = getelementptr inbounds nuw %struct.pmix_class_t, ptr %6, i32 0, i32 7
  %8 = load ptr, ptr %7, align 8, !tbaa !146
  store ptr %8, ptr %3, align 8, !tbaa !8
  br label %9

9:                                                ; preds = %13, %1
  %10 = load ptr, ptr %3, align 8, !tbaa !8
  %11 = load ptr, ptr %10, align 8, !tbaa !8
  %12 = icmp ne ptr null, %11
  br i1 %12, label %13, label %19

13:                                               ; preds = %9
  %14 = load ptr, ptr %3, align 8, !tbaa !8
  %15 = load ptr, ptr %14, align 8, !tbaa !8
  %16 = load ptr, ptr %2, align 8, !tbaa !89
  call void %15(ptr noundef %16)
  %17 = load ptr, ptr %3, align 8, !tbaa !8
  %18 = getelementptr inbounds nuw ptr, ptr %17, i32 1
  store ptr %18, ptr %3, align 8, !tbaa !8
  br label %9, !llvm.loop !147

19:                                               ; preds = %9
  call void @llvm.lifetime.end.p0(i64 8, ptr %3) #14
  ret void
}

; Function Attrs: alwaysinline nounwind uwtable
define internal i32 @pmix_obj_update(ptr noundef %0, i32 noundef %1) #6 {
  %3 = alloca ptr, align 8
  %4 = alloca i32, align 4
  %5 = alloca i32, align 4
  store ptr %0, ptr %3, align 8, !tbaa !89
  store i32 %1, ptr %4, align 4, !tbaa !28
  call void @llvm.lifetime.start.p0(i64 4, ptr %5) #14
  %6 = load ptr, ptr %3, align 8, !tbaa !89
  %7 = getelementptr inbounds nuw %struct.pmix_object_t, ptr %6, i32 0, i32 0
  %8 = call i32 @pthread_mutex_lock(ptr noundef %7) #14
  store i32 %8, ptr %5, align 4, !tbaa !28
  %9 = load i32, ptr %5, align 4, !tbaa !28
  %10 = icmp eq i32 %9, 35
  br i1 %10, label %11, label %14

11:                                               ; preds = %2
  %12 = load i32, ptr %5, align 4, !tbaa !28
  %13 = call ptr @__errno_location() #16
  store i32 %12, ptr %13, align 4, !tbaa !28
  call void @perror(ptr noundef @.str.86)
  call void @abort() #17
  unreachable

14:                                               ; preds = %2
  %15 = load i32, ptr %4, align 4, !tbaa !28
  %16 = load ptr, ptr %3, align 8, !tbaa !89
  %17 = getelementptr inbounds nuw %struct.pmix_object_t, ptr %16, i32 0, i32 2
  %18 = load i32, ptr %17, align 8, !tbaa !83
  %19 = add nsw i32 %18, %15
  store i32 %19, ptr %17, align 8, !tbaa !83
  store i32 %19, ptr %5, align 4, !tbaa !28
  %20 = load ptr, ptr %3, align 8, !tbaa !89
  %21 = getelementptr inbounds nuw %struct.pmix_object_t, ptr %20, i32 0, i32 0
  %22 = call i32 @pthread_mutex_unlock(ptr noundef %21) #14
  %23 = load i32, ptr %5, align 4, !tbaa !28
  call void @llvm.lifetime.end.p0(i64 4, ptr %5) #14
  ret i32 %23
}

; Function Attrs: nounwind uwtable
define internal void @stdcbfunc(i32 noundef %0, ptr noundef %1) #0 {
  %3 = alloca i32, align 4
  %4 = alloca ptr, align 8
  %5 = alloca ptr, align 8
  %6 = alloca ptr, align 8
  store i32 %0, ptr %3, align 4, !tbaa !28
  store ptr %1, ptr %4, align 8, !tbaa !8
  call void @llvm.lifetime.start.p0(i64 8, ptr %5) #14
  %7 = load ptr, ptr %4, align 8, !tbaa !8
  store ptr %7, ptr %5, align 8, !tbaa !8
  %8 = load ptr, ptr %5, align 8, !tbaa !8
  %9 = getelementptr inbounds nuw %struct.pmix_setup_caddy_t, ptr %8, i32 0, i32 29
  %10 = load ptr, ptr %9, align 8, !tbaa !231
  %11 = icmp ne ptr null, %10
  br i1 %11, label %12, label %20

12:                                               ; preds = %2
  %13 = load ptr, ptr %5, align 8, !tbaa !8
  %14 = getelementptr inbounds nuw %struct.pmix_setup_caddy_t, ptr %13, i32 0, i32 29
  %15 = load ptr, ptr %14, align 8, !tbaa !231
  %16 = load i32, ptr %3, align 4, !tbaa !28
  %17 = load ptr, ptr %5, align 8, !tbaa !8
  %18 = getelementptr inbounds nuw %struct.pmix_setup_caddy_t, ptr %17, i32 0, i32 34
  %19 = load ptr, ptr %18, align 8, !tbaa !130
  call void %15(i32 noundef %16, ptr noundef %19)
  br label %20

20:                                               ; preds = %12, %2
  %21 = load ptr, ptr %5, align 8, !tbaa !8
  %22 = getelementptr inbounds nuw %struct.pmix_setup_caddy_t, ptr %21, i32 0, i32 9
  %23 = load ptr, ptr %22, align 8, !tbaa !299
  %24 = icmp ne ptr null, %23
  br i1 %24, label %25, label %37

25:                                               ; preds = %20
  br label %26

26:                                               ; preds = %25
  %27 = load ptr, ptr %5, align 8, !tbaa !8
  %28 = getelementptr inbounds nuw %struct.pmix_setup_caddy_t, ptr %27, i32 0, i32 9
  %29 = load ptr, ptr %28, align 8, !tbaa !299
  %30 = load ptr, ptr %5, align 8, !tbaa !8
  %31 = getelementptr inbounds nuw %struct.pmix_setup_caddy_t, ptr %30, i32 0, i32 10
  %32 = load i64, ptr %31, align 8, !tbaa !300
  call void @PMIx_Proc_free(ptr noundef %29, i64 noundef %32)
  %33 = load ptr, ptr %5, align 8, !tbaa !8
  %34 = getelementptr inbounds nuw %struct.pmix_setup_caddy_t, ptr %33, i32 0, i32 9
  store ptr null, ptr %34, align 8, !tbaa !299
  br label %35

35:                                               ; preds = %26
  br label %36

36:                                               ; preds = %35
  br label %37

37:                                               ; preds = %36, %20
  %38 = load ptr, ptr %5, align 8, !tbaa !8
  %39 = getelementptr inbounds nuw %struct.pmix_setup_caddy_t, ptr %38, i32 0, i32 15
  %40 = load ptr, ptr %39, align 8, !tbaa !233
  %41 = icmp ne ptr null, %40
  br i1 %41, label %42, label %54

42:                                               ; preds = %37
  br label %43

43:                                               ; preds = %42
  %44 = load ptr, ptr %5, align 8, !tbaa !8
  %45 = getelementptr inbounds nuw %struct.pmix_setup_caddy_t, ptr %44, i32 0, i32 15
  %46 = load ptr, ptr %45, align 8, !tbaa !233
  %47 = load ptr, ptr %5, align 8, !tbaa !8
  %48 = getelementptr inbounds nuw %struct.pmix_setup_caddy_t, ptr %47, i32 0, i32 16
  %49 = load i64, ptr %48, align 8, !tbaa !232
  call void @PMIx_Info_free(ptr noundef %46, i64 noundef %49)
  %50 = load ptr, ptr %5, align 8, !tbaa !8
  %51 = getelementptr inbounds nuw %struct.pmix_setup_caddy_t, ptr %50, i32 0, i32 15
  store ptr null, ptr %51, align 8, !tbaa !233
  br label %52

52:                                               ; preds = %43
  br label %53

53:                                               ; preds = %52
  br label %54

54:                                               ; preds = %53, %37
  %55 = load ptr, ptr %5, align 8, !tbaa !8
  %56 = getelementptr inbounds nuw %struct.pmix_setup_caddy_t, ptr %55, i32 0, i32 25
  %57 = load ptr, ptr %56, align 8, !tbaa !411
  %58 = icmp ne ptr null, %57
  br i1 %58, label %59, label %68

59:                                               ; preds = %54
  br label %60

60:                                               ; preds = %59
  %61 = load ptr, ptr %5, align 8, !tbaa !8
  %62 = getelementptr inbounds nuw %struct.pmix_setup_caddy_t, ptr %61, i32 0, i32 25
  %63 = load ptr, ptr %62, align 8, !tbaa !411
  call void @PMIx_Byte_object_free(ptr noundef %63, i64 noundef 1)
  %64 = load ptr, ptr %5, align 8, !tbaa !8
  %65 = getelementptr inbounds nuw %struct.pmix_setup_caddy_t, ptr %64, i32 0, i32 25
  store ptr null, ptr %65, align 8, !tbaa !411
  br label %66

66:                                               ; preds = %60
  br label %67

67:                                               ; preds = %66
  br label %68

68:                                               ; preds = %67, %54
  br label %69

69:                                               ; preds = %68
  call void @llvm.lifetime.start.p0(i64 8, ptr %6) #14
  %70 = load ptr, ptr %5, align 8, !tbaa !8
  store ptr %70, ptr %6, align 8, !tbaa !89
  %71 = load ptr, ptr %6, align 8, !tbaa !89
  %72 = call i32 @pmix_obj_update(ptr noundef %71, i32 noundef -1)
  %73 = icmp eq i32 0, %72
  br i1 %73, label %74, label %88

74:                                               ; preds = %69
  %75 = load ptr, ptr %6, align 8, !tbaa !89
  call void @pmix_obj_run_destructors(ptr noundef %75)
  %76 = load ptr, ptr %6, align 8, !tbaa !89
  %77 = getelementptr inbounds nuw %struct.pmix_object_t, ptr %76, i32 0, i32 3
  %78 = getelementptr inbounds nuw %struct.pmix_tma, ptr %77, i32 0, i32 5
  %79 = load ptr, ptr %78, align 8, !tbaa !91
  %80 = icmp ne ptr null, %79
  br i1 %80, label %81, label %85

81:                                               ; preds = %74
  %82 = load ptr, ptr %6, align 8, !tbaa !89
  %83 = getelementptr inbounds nuw %struct.pmix_object_t, ptr %82, i32 0, i32 3
  %84 = load ptr, ptr %5, align 8, !tbaa !8
  call void @pmix_tma_free(ptr noundef %83, ptr noundef %84)
  br label %87

85:                                               ; preds = %74
  %86 = load ptr, ptr %5, align 8, !tbaa !8
  call void @free(ptr noundef %86) #14
  br label %87

87:                                               ; preds = %85, %81
  store ptr null, ptr %5, align 8, !tbaa !8
  br label %88

88:                                               ; preds = %87, %69
  call void @llvm.lifetime.end.p0(i64 8, ptr %6) #14
  br label %89

89:                                               ; preds = %88
  br label %90

90:                                               ; preds = %89
  call void @llvm.lifetime.end.p0(i64 8, ptr %5) #14
  ret void
}