; Function Attrs: nounwind uwtable
define internal void @stdcbfunc(i32 noundef %0, ptr noundef %1) #0 {
  %3 = getelementptr inbounds nuw i8, ptr %1, i64 952
  %4 = load ptr, ptr %3, align 8, !tbaa !198
  %.not = icmp eq ptr %4, null
  br i1 %.not, label %8, label %5

5:                                                ; preds = %2
  %6 = getelementptr inbounds nuw i8, ptr %1, i64 992
  %7 = load ptr, ptr %6, align 8, !tbaa !128
  tail call void %4(i32 noundef %0, ptr noundef %7) #19
  br label %8

8:                                                ; preds = %5, %2
  %9 = getelementptr inbounds nuw i8, ptr %1, i64 776
  %10 = load ptr, ptr %9, align 8, !tbaa !248
  %.not25 = icmp eq ptr %10, null
  br i1 %.not25, label %14, label %11

11:                                               ; preds = %8
  %12 = getelementptr inbounds nuw i8, ptr %1, i64 784
  %13 = load i64, ptr %12, align 8, !tbaa !249
  tail call void @PMIx_Proc_free(ptr noundef nonnull %10, i64 noundef %13) #19
  store ptr null, ptr %9, align 8, !tbaa !248
  br label %14

14:                                               ; preds = %11, %8
  %15 = getelementptr inbounds nuw i8, ptr %1, i64 816
  %16 = load ptr, ptr %15, align 8, !tbaa !200
  %.not26 = icmp eq ptr %16, null
  br i1 %.not26, label %20, label %17

17:                                               ; preds = %14
  %18 = getelementptr inbounds nuw i8, ptr %1, i64 824
  %19 = load i64, ptr %18, align 8, !tbaa !199
  tail call void @PMIx_Info_free(ptr noundef nonnull %16, i64 noundef %19) #19
  store ptr null, ptr %15, align 8, !tbaa !200
  br label %20

20:                                               ; preds = %17, %14
  %21 = getelementptr inbounds nuw i8, ptr %1, i64 920
  %22 = load ptr, ptr %21, align 8, !tbaa !364
  %.not27 = icmp eq ptr %22, null
  br i1 %.not27, label %24, label %23

23:                                               ; preds = %20
  tail call void @PMIx_Byte_object_free(ptr noundef nonnull %22, i64 noundef 1) #19
  store ptr null, ptr %21, align 8, !tbaa !364
  br label %24

24:                                               ; preds = %20, %23
  %25 = tail call i32 @pthread_mutex_lock(ptr noundef nonnull %1) #19
  %26 = icmp eq i32 %25, 35
  br i1 %26, label %27, label %pmix_obj_update.exit

27:                                               ; preds = %24
  %28 = tail call ptr @__errno_location() #22
  store i32 35, ptr %28, align 4, !tbaa !23
  tail call void @perror(ptr noundef nonnull @.str.86) #23
  tail call void @abort() #24
  unreachable

pmix_obj_update.exit:                             ; preds = %24
  %29 = getelementptr inbounds nuw i8, ptr %1, i64 48
  %30 = load i32, ptr %29, align 8, !tbaa !78
  %31 = add nsw i32 %30, -1
  store i32 %31, ptr %29, align 8, !tbaa !78
  %32 = tail call i32 @pthread_mutex_unlock(ptr noundef nonnull %1) #19
  %33 = icmp eq i32 %31, 0
  br i1 %33, label %34, label %48

34:                                               ; preds = %pmix_obj_update.exit
  %35 = getelementptr inbounds nuw i8, ptr %1, i64 40
  %36 = load ptr, ptr %35, align 8, !tbaa !77
  %37 = getelementptr inbounds nuw i8, ptr %36, i64 48
  %38 = load ptr, ptr %37, align 8, !tbaa !88
  %39 = load ptr, ptr %38, align 8, !tbaa !80
  %.not6.i = icmp eq ptr %39, null
  br i1 %.not6.i, label %pmix_obj_run_destructors.exit, label %.lr.ph.i

.lr.ph.i:                                         ; preds = %34, %.lr.ph.i
  %40 = phi ptr [ %42, %.lr.ph.i ], [ %39, %34 ]
  %.07.i = phi ptr [ %41, %.lr.ph.i ], [ %38, %34 ]
  tail call void %40(ptr noundef nonnull %1) #19
  %41 = getelementptr inbounds nuw i8, ptr %.07.i, i64 8
  %42 = load ptr, ptr %41, align 8, !tbaa !80
  %.not.i = icmp eq ptr %42, null
  br i1 %.not.i, label %pmix_obj_run_destructors.exit, label %.lr.ph.i, !llvm.loop !89

pmix_obj_run_destructors.exit:                    ; preds = %.lr.ph.i, %34
  %43 = getelementptr inbounds nuw i8, ptr %1, i64 96
  %44 = load ptr, ptr %43, align 8, !tbaa !90
  %.not28 = icmp eq ptr %44, null
  br i1 %.not28, label %47, label %45

45:                                               ; preds = %pmix_obj_run_destructors.exit
  %46 = getelementptr inbounds nuw i8, ptr %1, i64 56
  tail call void %44(ptr noundef nonnull %46, ptr noundef nonnull %1) #19
  br label %48

47:                                               ; preds = %pmix_obj_run_destructors.exit
  tail call void @free(ptr noundef nonnull %1) #19
  br label %48

48:                                               ; preds = %45, %47, %pmix_obj_update.exit
  ret void
}